(lp1
(lp2
F0.69140341479411982
aF0.069528415191997039
aF0.48431503735068404
aF1
aa(lp3
F0.78653438006555298
aF0.34787419948788001
aF0.24013592089013103
aF1
aa(lp4
F0.94516577949009117
aF0.97975964234418012
aF0.025315403616813392
aF0
aa(lp5
F0.52764330805262616
aF0.098992031325587315
aF0.96940963109143041
aF1
aa(lp6
F0.1321720097325616
aF0.6743910667275117
aF0.74841701263183147
aF0
aa(lp7
F0.98934838015798676
aF0.036621657452447831
aF0.56343752285222148
aF1
aa(lp8
F0.41638185820285367
aF0.43055671356356928
aF0.15927146558339778
aF0
aa(lp9
F0.37172535192447764
aF0.73195717370780589
aF0.31512059878488352
aF0
aa(lp10
F0.38619958946520183
aF0.65314274654620619
aF0.9432868096949707
aF0
aa(lp11
F0.66405570234017774
aF0.37304873915270931
aF0.60470501903758578
aF1
aa.